target datalayout = "e-m:e-p270:32:32-p271:32:32-p272:64:64-i64:64-i128:128-f80:128-n8:16:32:64-S128"
target triple = "x86_64-pc-linux-gnu"

%struct._object = type { %union.anon, ptr }
%union.anon = type { i64 }
%struct._typeobject = type { %struct.PyVarObject, ptr, i64, i64, ptr, i64, ptr, ptr, ptr, ptr, ptr, ptr, ptr, ptr, ptr, ptr, ptr, ptr, ptr, i64, ptr, ptr, ptr, ptr, i64, ptr, ptr, ptr, ptr, ptr, ptr, ptr, ptr, ptr, i64, ptr, ptr, ptr, ptr, ptr, ptr, ptr, ptr, ptr, ptr, ptr, i32, ptr, ptr, i8, i16 }
%struct.PyVarObject = type { %struct._object, i64 }
%struct.anon = type { i32, i32 }

@.str.32 = private unnamed_addr constant [40 x i8] c"../cpython/Modules/_testcapi/watchers.c\00", align 1
@.str.49 = private unnamed_addr constant [28 x i8] c"PyLong_Check(which_watcher)\00", align 1
@PyExc_ValueError = external global ptr, align 8
@.str.50 = private unnamed_addr constant [19 x i8] c"invalid watcher %d\00", align 1
@add_context_watcher.callbacks = internal constant [3 x ptr] [ptr @first_context_watcher_callback, ptr @second_context_watcher_callback, ptr @error_context_event_handler], align 16
@__PRETTY_FUNCTION__.add_context_watcher = private unnamed_addr constant [54 x i8] c"PyObject *add_context_watcher(PyObject *, PyObject *)\00", align 1
@context_watcher_ids = internal global [2 x i32] [i32 -1, i32 -1], align 4
@context_switches = internal global [2 x ptr] zeroinitializer, align 16

; Function Attrs: alwaysinline nounwind uwtable
define internal i32 @_Py_IsImmortal(ptr noundef %0) #5 {
  %2 = alloca ptr, align 8
  store ptr %0, ptr %2, align 8, !tbaa !3
  %3 = load ptr, ptr %2, align 8, !tbaa !3
  %4 = getelementptr inbounds nuw %struct._object, ptr %3, i32 0, i32 0
  %5 = getelementptr inbounds nuw %struct.anon, ptr %4, i32 0, i32 0
  %6 = load i32, ptr %5, align 8, !tbaa !52
  %7 = icmp slt i32 %6, 0
  %8 = zext i1 %7 to i32
  ret i32 %8
}

; Function Attrs: alwaysinline nounwind uwtable
define internal void @Py_DECREF(ptr noundef %0) #5 {
  %2 = alloca ptr, align 8
  store ptr %0, ptr %2, align 8, !tbaa !3
  %3 = load ptr, ptr %2, align 8, !tbaa !3
  %4 = call i32 @_Py_IsImmortal(ptr noundef %3)
  %5 = icmp ne i32 %4, 0
  br i1 %5, label %6, label %7

6:                                                ; preds = %1
  br label %16

7:                                                ; preds = %1
  %8 = load ptr, ptr %2, align 8, !tbaa !3
  %9 = getelementptr inbounds nuw %struct._object, ptr %8, i32 0, i32 0
  %10 = getelementptr inbounds nuw %struct.anon, ptr %9, i32 0, i32 0
  %11 = load i32, ptr %10, align 8, !tbaa !52
  %12 = add i32 %11, -1
  store i32 %12, ptr %10, align 8, !tbaa !52
  %13 = icmp eq i32 %12, 0
  br i1 %13, label %14, label %16

14:                                               ; preds = %7
  %15 = load ptr, ptr %2, align 8, !tbaa !3
  call void @_Py_Dealloc(ptr noundef %15)
  br label %16

16:                                               ; preds = %6, %14, %7
  ret void
}

; Function Attrs: inlinehint nounwind uwtable
define internal void @Py_XDECREF(ptr noundef %0) #3 {
  %2 = alloca ptr, align 8
  store ptr %0, ptr %2, align 8, !tbaa !3
  %3 = load ptr, ptr %2, align 8, !tbaa !3
  %4 = icmp ne ptr %3, null
  br i1 %4, label %5, label %7

5:                                                ; preds = %1
  %6 = load ptr, ptr %2, align 8, !tbaa !3
  call void @Py_DECREF(ptr noundef %6)
  br label %7

7:                                                ; preds = %5, %1
  ret void
}

; Function Attrs: inlinehint nounwind uwtable
define internal i32 @PyType_HasFeature(ptr noundef %0, i64 noundef %1) #3 {
  %3 = alloca ptr, align 8
  %4 = alloca i64, align 8
  %5 = alloca i64, align 8
  store ptr %0, ptr %3, align 8, !tbaa !43
  store i64 %1, ptr %4, align 8, !tbaa !12
  call void @llvm.lifetime.start.p0(i64 8, ptr %5) #6
  %6 = load ptr, ptr %3, align 8, !tbaa !43
  %7 = getelementptr inbounds nuw %struct._typeobject, ptr %6, i32 0, i32 19
  %8 = load i64, ptr %7, align 8, !tbaa !44
  store i64 %8, ptr %5, align 8, !tbaa !12
  %9 = load i64, ptr %5, align 8, !tbaa !12
  %10 = load i64, ptr %4, align 8, !tbaa !12
  %11 = and i64 %9, %10
  %12 = icmp ne i64 %11, 0
  %13 = zext i1 %12 to i32
  call void @llvm.lifetime.end.p0(i64 8, ptr %5) #6
  ret i32 %13
}

; Function Attrs: inlinehint nounwind uwtable
define internal ptr @_Py_TYPE(ptr noundef %0) #3 {
  %2 = alloca ptr, align 8
  store ptr %0, ptr %2, align 8, !tbaa !3
  %3 = load ptr, ptr %2, align 8, !tbaa !3
  %4 = getelementptr inbounds nuw %struct._object, ptr %3, i32 0, i32 1
  %5 = load ptr, ptr %4, align 8, !tbaa !51
  ret ptr %5
}

; Function Attrs: nounwind uwtable
define internal ptr @add_context_watcher(ptr noundef %0, ptr noundef %1) #0 {
  %3 = alloca ptr, align 8
  %4 = alloca ptr, align 8
  %5 = alloca ptr, align 8
  %6 = alloca i64, align 8
  %7 = alloca i32, align 4
  %8 = alloca i32, align 4
  %9 = alloca ptr, align 8
  %10 = alloca ptr, align 8
  store ptr %0, ptr %4, align 8, !tbaa !3
  store ptr %1, ptr %5, align 8, !tbaa !3
  %11 = load ptr, ptr %5, align 8, !tbaa !3
  %12 = call ptr @_Py_TYPE(ptr noundef %11)
  %13 = call i32 @PyType_HasFeature(ptr noundef %12, i64 noundef 16777216)
  %14 = icmp ne i32 %13, 0
  br i1 %14, label %15, label %16

15:                                               ; preds = %2
  br label %18

16:                                               ; preds = %2
  call void @__assert_fail(ptr noundef @.str.49, ptr noundef @.str.32, i32 noundef 673, ptr noundef @__PRETTY_FUNCTION__.add_context_watcher) #7
  unreachable

17:                                               ; No predecessors!
  br label %18

18:                                               ; preds = %17, %15
  call void @llvm.lifetime.start.p0(i64 8, ptr %6) #6
  %19 = load ptr, ptr %5, align 8, !tbaa !3
  %20 = call i64 @PyLong_AsLong(ptr noundef %19)
  store i64 %20, ptr %6, align 8, !tbaa !12
  %21 = load i64, ptr %6, align 8, !tbaa !12
  %22 = icmp slt i64 %21, 0
  br i1 %22, label %26, label %23

23:                                               ; preds = %18
  %24 = load i64, ptr %6, align 8, !tbaa !12
  %25 = icmp sge i64 %24, 3
  br i1 %25, label %26, label %30

26:                                               ; preds = %23, %18
  %27 = load ptr, ptr @PyExc_ValueError, align 8, !tbaa !3
  %28 = load i64, ptr %6, align 8, !tbaa !12
  %29 = call ptr (ptr, ptr, ...) @PyErr_Format(ptr noundef %27, ptr noundef @.str.50, i64 noundef %28)
  store ptr null, ptr %3, align 8
  store i32 1, ptr %7, align 4
  br label %69

30:                                               ; preds = %23
  call void @llvm.lifetime.start.p0(i64 4, ptr %8) #6
  %31 = load i64, ptr %6, align 8, !tbaa !12
  %32 = getelementptr [3 x ptr], ptr @add_context_watcher.callbacks, i64 0, i64 %31
  %33 = load ptr, ptr %32, align 8, !tbaa !21
  %34 = call i32 @PyContext_AddWatcher(ptr noundef %33)
  store i32 %34, ptr %8, align 4, !tbaa !10
  %35 = load i32, ptr %8, align 4, !tbaa !10
  %36 = icmp slt i32 %35, 0
  br i1 %36, label %37, label %38

37:                                               ; preds = %30
  store ptr null, ptr %3, align 8
  store i32 1, ptr %7, align 4
  br label %68

38:                                               ; preds = %30
  %39 = load i64, ptr %6, align 8, !tbaa !12
  %40 = icmp sge i64 %39, 0
  br i1 %40, label %41, label %64

41:                                               ; preds = %38
  %42 = load i64, ptr %6, align 8, !tbaa !12
  %43 = icmp slt i64 %42, 2
  br i1 %43, label %44, label %64

44:                                               ; preds = %41
  %45 = load i32, ptr %8, align 4, !tbaa !10
  %46 = load i64, ptr %6, align 8, !tbaa !12
  %47 = getelementptr [2 x i32], ptr @context_watcher_ids, i64 0, i64 %46
  store i32 %45, ptr %47, align 4, !tbaa !10
  br label %48

48:                                               ; preds = %44
  call void @llvm.lifetime.start.p0(i64 8, ptr %9) #6
  %49 = load i64, ptr %6, align 8, !tbaa !12
  %50 = getelementptr [2 x ptr], ptr @context_switches, i64 0, i64 %49
  store ptr %50, ptr %9, align 8, !tbaa !14
  call void @llvm.lifetime.start.p0(i64 8, ptr %10) #6
  %51 = load ptr, ptr %9, align 8, !tbaa !14
  %52 = load ptr, ptr %51, align 8, !tbaa !3
  store ptr %52, ptr %10, align 8, !tbaa !3
  %53 = call ptr @PyList_New(i64 noundef 0)
  %54 = load ptr, ptr %9, align 8, !tbaa !14
  store ptr %53, ptr %54, align 8, !tbaa !3
  %55 = load ptr, ptr %10, align 8, !tbaa !3
  call void @Py_XDECREF(ptr noundef %55)
  call void @llvm.lifetime.end.p0(i64 8, ptr %10) #6
  call void @llvm.lifetime.end.p0(i64 8, ptr %9) #6
  br label %56

56:                                               ; preds = %48
  br label %57

57:                                               ; preds = %56
  %58 = load i64, ptr %6, align 8, !tbaa !12
  %59 = getelementptr [2 x ptr], ptr @context_switches, i64 0, i64 %58
  %60 = load ptr, ptr %59, align 8, !tbaa !3
  %61 = icmp eq ptr %60, null
  br i1 %61, label %62, label %63

62:                                               ; preds = %57
  store ptr null, ptr %3, align 8
  store i32 1, ptr %7, align 4
  br label %68

63:                                               ; preds = %57
  br label %64

64:                                               ; preds = %63, %41, %38
  %65 = load i32, ptr %8, align 4, !tbaa !10
  %66 = sext i32 %65 to i64
  %67 = call ptr @PyLong_FromLong(i64 noundef %66)
  store ptr %67, ptr %3, align 8
  store i32 1, ptr %7, align 4
  br label %68

68:                                               ; preds = %64, %62, %37
  call void @llvm.lifetime.end.p0(i64 4, ptr %8) #6
  br label %69

69:                                               ; preds = %68, %26
  call void @llvm.lifetime.end.p0(i64 8, ptr %6) #6
  %70 = load ptr, ptr %3, align 8
  ret ptr %70
}