; Function Attrs: nounwind uwtable
define internal ptr @add_context_watcher(ptr readnone captures(none) %0, ptr noundef %1) #0 {
  %3 = getelementptr i8, ptr %1, i64 8
  %.val = load ptr, ptr %3, align 8, !tbaa !3
  %4 = getelementptr i8, ptr %.val, i64 168
  %.val23 = load i64, ptr %4, align 8, !tbaa !9
  %5 = and i64 %.val23, 16777216
  %.not = icmp eq i64 %5, 0
  br i1 %.not, label %6, label %7

6:                                                ; preds = %2
  tail call void @__assert_fail(ptr noundef nonnull @.str.49, ptr noundef nonnull @.str.32, i32 noundef 673, ptr noundef nonnull @__PRETTY_FUNCTION__.add_context_watcher) #7
  unreachable

7:                                                ; preds = %2
  %8 = tail call i64 @PyLong_AsLong(ptr noundef nonnull %1) #6
  %or.cond = icmp ugt i64 %8, 2
  br i1 %or.cond, label %9, label %12

9:                                                ; preds = %7
  %10 = load ptr, ptr @PyExc_ValueError, align 8, !tbaa !21
  %11 = tail call ptr (ptr, ptr, ...) @PyErr_Format(ptr noundef %10, ptr noundef nonnull @.str.50, i64 noundef %8) #6
  br label %34

12:                                               ; preds = %7
  %13 = getelementptr [3 x ptr], ptr @add_context_watcher.callbacks, i64 0, i64 %8
  %14 = load ptr, ptr %13, align 8, !tbaa !28
  %15 = tail call i32 @PyContext_AddWatcher(ptr noundef %14) #6
  %16 = icmp slt i32 %15, 0
  br i1 %16, label %34, label %17

17:                                               ; preds = %12
  %.not22 = icmp eq i64 %8, 2
  br i1 %.not22, label %31, label %18

18:                                               ; preds = %17
  %19 = getelementptr [2 x i32], ptr @context_watcher_ids, i64 0, i64 %8
  store i32 %15, ptr %19, align 4, !tbaa !20
  %20 = getelementptr [2 x ptr], ptr @context_switches, i64 0, i64 %8
  %21 = load ptr, ptr %20, align 8, !tbaa !21
  %22 = tail call ptr @PyList_New(i64 noundef 0) #6
  store ptr %22, ptr %20, align 8, !tbaa !21
  %.not.i = icmp eq ptr %21, null
  br i1 %.not.i, label %Py_XDECREF.exit, label %23

23:                                               ; preds = %18
  %24 = load i32, ptr %21, align 8, !tbaa !22
  %.not.i.i = icmp sgt i32 %24, -1
  br i1 %.not.i.i, label %25, label %Py_XDECREF.exit

25:                                               ; preds = %23
  %26 = add nsw i32 %24, -1
  store i32 %26, ptr %21, align 8, !tbaa !22
  %27 = icmp eq i32 %26, 0
  br i1 %27, label %28, label %Py_XDECREF.exit

28:                                               ; preds = %25
  tail call void @_Py_Dealloc(ptr noundef nonnull %21) #6
  %.pr.pre = load ptr, ptr %20, align 8, !tbaa !21
  br label %Py_XDECREF.exit

Py_XDECREF.exit:                                  ; preds = %25, %28, %18, %23
  %29 = phi ptr [ %22, %18 ], [ %22, %23 ], [ %.pr.pre, %28 ], [ %22, %25 ]
  %30 = icmp eq ptr %29, null
  br i1 %30, label %34, label %31

31:                                               ; preds = %Py_XDECREF.exit, %17
  %32 = zext nneg i32 %15 to i64
  %33 = tail call ptr @PyLong_FromLong(i64 noundef %32) #6
  br label %34

34:                                               ; preds = %31, %12, %Py_XDECREF.exit, %9
  %.0 = phi ptr [ null, %9 ], [ %33, %31 ], [ null, %12 ], [ null, %Py_XDECREF.exit ]
  ret ptr %.0
}